; ModuleID = '56/1763.c'
source_filename = "56/1763.c"
target datalayout = "e-m:e-p270:32:32-p271:32:32-p272:64:64-i64:64-f80:128-n8:16:32:64-S128"
target triple = "x86_64-pc-linux-gnu"

@.str = private unnamed_addr constant [3 x i8] c"%c\00", align 1
@.str.1 = private unnamed_addr constant [2 x i8] c"\0A\00", align 1

; Function Attrs: noinline nounwind uwtable
define dso_local i32 @main() #0 {
  %1 = alloca i32, align 4
  %2 = alloca [20 x i8], align 16
  %3 = alloca i8, align 1
  store i32 0, i32* %1, align 4
  %4 = bitcast [20 x i8]* %2 to i8*
  call void @llvm.memset.p0i8.i64(i8* align 16 %4, i8 0, i64 20, i1 false)
  store i8 0, i8* %3, align 1
  br label %5

5:                                                ; preds = %20, %0
  %6 = load i8, i8* %3, align 1
  %7 = sext i8 %6 to i64
  %8 = getelementptr inbounds [20 x i8], [20 x i8]* %2, i64 0, i64 %7
  %9 = call i32 (i8*, ...) @__isoc99_scanf(i8* getelementptr inbounds ([3 x i8], [3 x i8]* @.str, i64 0, i64 0), i8* %8)
  %10 = icmp ne i32 %9, -1
  br i1 %10, label %11, label %18

11:                                               ; preds = %5
  %12 = load i8, i8* %3, align 1
  %13 = sext i8 %12 to i64
  %14 = getelementptr inbounds [20 x i8], [20 x i8]* %2, i64 0, i64 %13
  %15 = load i8, i8* %14, align 1
  %16 = sext i8 %15 to i32
  %17 = icmp ne i32 %16, 10
  br label %18

18:                                               ; preds = %11, %5
  %19 = phi i1 [ false, %5 ], [ %17, %11 ]
  br i1 %19, label %20, label %23

20:                                               ; preds = %18
  %21 = load i8, i8* %3, align 1
  %22 = add i8 %21, 1
  store i8 %22, i8* %3, align 1
  br label %5

23:                                               ; preds = %18
  %24 = load i8, i8* %3, align 1
  %25 = add i8 %24, -1
  store i8 %25, i8* %3, align 1
  br label %26

26:                                               ; preds = %37, %23
  %27 = load i8, i8* %3, align 1
  %28 = sext i8 %27 to i32
  %29 = icmp sge i32 %28, 0
  br i1 %29, label %30, label %40

30:                                               ; preds = %26
  %31 = load i8, i8* %3, align 1
  %32 = sext i8 %31 to i64
  %33 = getelementptr inbounds [20 x i8], [20 x i8]* %2, i64 0, i64 %32
  %34 = load i8, i8* %33, align 1
  %35 = sext i8 %34 to i32
  %36 = call i32 (i8*, ...) @printf(i8* getelementptr inbounds ([3 x i8], [3 x i8]* @.str, i64 0, i64 0), i32 %35)
  br label %37

37:                                               ; preds = %30
  %38 = load i8, i8* %3, align 1
  %39 = add i8 %38, -1
  store i8 %39, i8* %3, align 1
  br label %26

40:                                               ; preds = %26
  %41 = call i32 (i8*, ...) @printf(i8* getelementptr inbounds ([2 x i8], [2 x i8]* @.str.1, i64 0, i64 0))
  %42 = load i32, i32* %1, align 4
  ret i32 %42
}

; Function Attrs: argmemonly nounwind willreturn
declare void @llvm.memset.p0i8.i64(i8* nocapture writeonly, i8, i64, i1 immarg) #1

declare dso_local i32 @__isoc99_scanf(i8*, ...) #2

declare dso_local i32 @printf(i8*, ...) #2


!llvm.module.flags = !{!0}
!llvm.ident = !{!1}

!0 = !{i32 1, !"wchar_size", i32 4}
!1 = !{!"clang version 10.0.0-4ubuntu1 "}
