; ModuleID = 'source-C-CXX/55/1763.c'
source_filename = "source-C-CXX/55/1763.c"
target datalayout = "e-m:e-p270:32:32-p271:32:32-p272:64:64-i64:64-f80:128-n8:16:32:64-S128"
target triple = "x86_64-pc-linux-gnu"

@.str = private unnamed_addr constant [3 x i8] c"%c\00", align 1

; Function Attrs: nofree nounwind sspstrong uwtable
define dso_local i32 @main() local_unnamed_addr #0 {
  %1 = alloca [20 x i8], align 16
  %2 = getelementptr inbounds [20 x i8], [20 x i8]* %1, i64 0, i64 0
  call void @llvm.lifetime.start.p0i8(i64 20, i8* nonnull %2) #5
  call void @llvm.memset.p0i8.i64(i8* noundef nonnull align 16 dereferenceable(20) %2, i8 0, i64 20, i1 false)
  %3 = call i32 (i8*, ...) @__isoc99_scanf(i8* getelementptr inbounds ([3 x i8], [3 x i8]* @.str, i64 0, i64 0), i8* nonnull %2)
  %4 = icmp eq i32 %3, -1
  br i1 %4, label %29, label %5

5:                                                ; preds = %0, %10
  %6 = phi i8* [ %13, %10 ], [ %2, %0 ]
  %7 = phi i8 [ %11, %10 ], [ 0, %0 ]
  %8 = load i8, i8* %6, align 1, !tbaa !5
  %9 = icmp eq i8 %8, 10
  br i1 %9, label %16, label %10

10:                                               ; preds = %5
  %11 = add i8 %7, 1
  %12 = sext i8 %11 to i64
  %13 = getelementptr inbounds [20 x i8], [20 x i8]* %1, i64 0, i64 %12
  %14 = call i32 (i8*, ...) @__isoc99_scanf(i8* getelementptr inbounds ([3 x i8], [3 x i8]* @.str, i64 0, i64 0), i8* nonnull %13)
  %15 = icmp eq i32 %14, -1
  br i1 %15, label %16, label %5, !llvm.loop !8

16:                                               ; preds = %5, %10
  %17 = phi i8 [ %7, %5 ], [ %11, %10 ]
  %18 = add i8 %17, -1
  %19 = icmp sgt i8 %18, -1
  br i1 %19, label %20, label %29

20:                                               ; preds = %16, %20
  %21 = phi i8 [ %27, %20 ], [ %18, %16 ]
  %22 = zext i8 %21 to i64
  %23 = getelementptr inbounds [20 x i8], [20 x i8]* %1, i64 0, i64 %22
  %24 = load i8, i8* %23, align 1, !tbaa !5
  %25 = sext i8 %24 to i32
  %26 = call i32 @putchar(i32 %25)
  %27 = add nsw i8 %21, -1
  %28 = icmp sgt i8 %21, 0
  br i1 %28, label %20, label %29, !llvm.loop !10

29:                                               ; preds = %20, %0, %16
  %30 = call i32 @putchar(i32 10)
  call void @llvm.lifetime.end.p0i8(i64 20, i8* nonnull %2) #5
  ret i32 0
}

; Function Attrs: argmemonly mustprogress nofree nosync nounwind willreturn
declare void @llvm.lifetime.start.p0i8(i64 immarg, i8* nocapture) #1

; Function Attrs: argmemonly mustprogress nofree nounwind willreturn writeonly
declare void @llvm.memset.p0i8.i64(i8* nocapture writeonly, i8, i64, i1 immarg) #2

; Function Attrs: nofree nounwind
declare noundef i32 @__isoc99_scanf(i8* nocapture noundef readonly, ...) local_unnamed_addr #3

; Function Attrs: argmemonly mustprogress nofree nosync nounwind willreturn
declare void @llvm.lifetime.end.p0i8(i64 immarg, i8* nocapture) #1

; Function Attrs: nofree nounwind
declare noundef i32 @putchar(i32 noundef) local_unnamed_addr #4


!llvm.module.flags = !{!0, !1, !2, !3}
!llvm.ident = !{!4}

!0 = !{i32 1, !"wchar_size", i32 4}
!1 = !{i32 7, !"PIC Level", i32 2}
!2 = !{i32 7, !"PIE Level", i32 2}
!3 = !{i32 7, !"uwtable", i32 1}
!4 = !{!"clang version 13.0.0"}
!5 = !{!6, !6, i64 0}
!6 = !{!"omnipotent char", !7, i64 0}
!7 = !{!"Simple C/C++ TBAA"}
!8 = distinct !{!8, !9}
!9 = !{!"llvm.loop.mustprogress"}
!10 = distinct !{!10, !9}
